target datalayout = "e-m:e-p270:32:32-p271:32:32-p272:64:64-i64:64-i128:128-f80:128-n8:16:32:64-S128"
target triple = "x86_64-pc-linux-gnu"

; Function Attrs: nounwind uwtable
define hidden i32 @mbedtls_ecp_tls_read_point(ptr noundef %0, ptr noundef %1, ptr noundef %2, i64 noundef %3) #0 {
  %5 = alloca i32, align 4
  %6 = alloca ptr, align 8
  %7 = alloca ptr, align 8
  %8 = alloca ptr, align 8
  %9 = alloca i64, align 8
  %10 = alloca i8, align 1
  %11 = alloca ptr, align 8
  %12 = alloca i32, align 4
  store ptr %0, ptr %6, align 8, !tbaa !25
  store ptr %1, ptr %7, align 8, !tbaa !34
  store ptr %2, ptr %8, align 8, !tbaa !52
  store i64 %3, ptr %9, align 8, !tbaa !7
  call void @llvm.lifetime.start.p0(i64 1, ptr %10) #11
  call void @llvm.lifetime.start.p0(i64 8, ptr %11) #11
  %13 = load i64, ptr %9, align 8, !tbaa !7
  %14 = icmp ult i64 %13, 2
  br i1 %14, label %15, label %16

15:                                               ; preds = %4
  store i32 -20352, ptr %5, align 4
  store i32 1, ptr %12, align 4
  br label %46

16:                                               ; preds = %4
  %17 = load ptr, ptr %8, align 8, !tbaa !52
  %18 = load ptr, ptr %17, align 8, !tbaa !22
  %19 = getelementptr inbounds nuw i8, ptr %18, i32 1
  store ptr %19, ptr %17, align 8, !tbaa !22
  %20 = load i8, ptr %18, align 1, !tbaa !49
  store i8 %20, ptr %10, align 1, !tbaa !49
  %21 = load i8, ptr %10, align 1, !tbaa !49
  %22 = zext i8 %21 to i32
  %23 = icmp slt i32 %22, 1
  br i1 %23, label %30, label %24

24:                                               ; preds = %16
  %25 = load i8, ptr %10, align 1, !tbaa !49
  %26 = zext i8 %25 to i64
  %27 = load i64, ptr %9, align 8, !tbaa !7
  %28 = sub i64 %27, 1
  %29 = icmp ugt i64 %26, %28
  br i1 %29, label %30, label %31

30:                                               ; preds = %24, %16
  store i32 -20352, ptr %5, align 4
  store i32 1, ptr %12, align 4
  br label %46

31:                                               ; preds = %24
  %32 = load ptr, ptr %8, align 8, !tbaa !52
  %33 = load ptr, ptr %32, align 8, !tbaa !22
  store ptr %33, ptr %11, align 8, !tbaa !22
  %34 = load i8, ptr %10, align 1, !tbaa !49
  %35 = zext i8 %34 to i32
  %36 = load ptr, ptr %8, align 8, !tbaa !52
  %37 = load ptr, ptr %36, align 8, !tbaa !22
  %38 = sext i32 %35 to i64
  %39 = getelementptr inbounds i8, ptr %37, i64 %38
  store ptr %39, ptr %36, align 8, !tbaa !22
  %40 = load ptr, ptr %6, align 8, !tbaa !25
  %41 = load ptr, ptr %7, align 8, !tbaa !34
  %42 = load ptr, ptr %11, align 8, !tbaa !22
  %43 = load i8, ptr %10, align 1, !tbaa !49
  %44 = zext i8 %43 to i64
  %45 = call i32 @mbedtls_ecp_point_read_binary(ptr noundef %40, ptr noundef %41, ptr noundef %42, i64 noundef %44)
  store i32 %45, ptr %5, align 4
  store i32 1, ptr %12, align 4
  br label %46

46:                                               ; preds = %31, %30, %15
  call void @llvm.lifetime.end.p0(i64 8, ptr %11) #11
  call void @llvm.lifetime.end.p0(i64 1, ptr %10) #11
  %47 = load i32, ptr %5, align 4
  ret i32 %47
}