; Function Attrs: nounwind uwtable
define hidden i32 @mbedtls_ecp_tls_read_point(ptr noundef %0, ptr noundef %1, ptr noundef captures(none) %2, i64 noundef %3) local_unnamed_addr #7 {
  %5 = icmp ult i64 %3, 2
  br i1 %5, label %18, label %6

6:                                                ; preds = %4
  %7 = load ptr, ptr %2, align 8, !tbaa !35
  %8 = getelementptr inbounds nuw i8, ptr %7, i64 1
  store ptr %8, ptr %2, align 8, !tbaa !35
  %9 = load i8, ptr %7, align 1, !tbaa !34
  %10 = icmp eq i8 %9, 0
  br i1 %10, label %18, label %11

11:                                               ; preds = %6
  %12 = zext i8 %9 to i64
  %13 = add i64 %3, -1
  %14 = icmp ult i64 %13, %12
  br i1 %14, label %18, label %15

15:                                               ; preds = %11
  %16 = getelementptr inbounds nuw i8, ptr %8, i64 %12
  store ptr %16, ptr %2, align 8, !tbaa !35
  %17 = tail call i32 @mbedtls_ecp_point_read_binary(ptr noundef %0, ptr noundef %1, ptr noundef nonnull %8, i64 noundef %12)
  br label %18

18:                                               ; preds = %6, %11, %4, %15
  %.0 = phi i32 [ %17, %15 ], [ -20352, %4 ], [ -20352, %11 ], [ -20352, %6 ]
  ret i32 %.0
}